; Function Attrs: mustprogress uwtable
define hidden noundef zeroext i1 @_ZN4lean8has_fvarERKNS_4exprES2_(ptr noundef nonnull align 8 dereferenceable(8) %0, ptr noundef nonnull align 8 dereferenceable(8) %1) local_unnamed_addr #0 personality ptr @__gxx_personality_v0 {
  %3 = alloca i8, align 1
  %4 = alloca %"class.std::function", align 8
  %5 = load ptr, ptr %0, align 8, !tbaa !3
  %6 = getelementptr i8, ptr %5, i64 4
  %.val.i.i = load i32, ptr %6, align 4
  %7 = lshr i32 %.val.i.i, 13
  %8 = and i32 %7, 2040
  %9 = getelementptr inbounds nuw i8, ptr %5, i64 8
  %10 = zext nneg i32 %8 to i64
  %11 = getelementptr inbounds nuw i8, ptr %9, i64 %10
  %12 = load i64, ptr %11, align 8, !tbaa !71
  %13 = and i64 %12, 1099511627776
  %.not = icmp eq i64 %13, 0
  br i1 %.not, label %34, label %14

14:                                               ; preds = %2
  call void @llvm.lifetime.start.p0(i64 1, ptr nonnull %3) #25
  store i8 0, ptr %3, align 1, !tbaa !72
  call void @llvm.lifetime.start.p0(i64 32, ptr nonnull %4) #25
  %15 = getelementptr inbounds nuw i8, ptr %4, i64 16
  %16 = getelementptr inbounds nuw i8, ptr %4, i64 24
  store ptr %3, ptr %4, align 8, !tbaa !73
  %.sroa.5.0..sroa_idx = getelementptr inbounds nuw i8, ptr %4, i64 8
  store ptr %1, ptr %.sroa.5.0..sroa_idx, align 8, !tbaa !19
  store ptr @"_ZNSt17_Function_handlerIFbRKN4lean4exprEjEZNS0_8has_fvarES3_S3_E3$_0E9_M_invokeERKSt9_Any_dataS3_Oj", ptr %16, align 8, !tbaa !75
  store ptr @"_ZNSt17_Function_handlerIFbRKN4lean4exprEjEZNS0_8has_fvarES3_S3_E3$_0E10_M_managerERSt9_Any_dataRKS7_St18_Manager_operation", ptr %15, align 8, !tbaa !78
  invoke void @_ZN4lean8for_eachERKNS_4exprEOSt8functionIFbS2_jEE(ptr noundef nonnull align 8 dereferenceable(8) %0, ptr noundef nonnull align 8 dereferenceable(32) %4)
          to label %17 unwind label %26

17:                                               ; preds = %14
  %18 = load ptr, ptr %15, align 8, !tbaa !78
  %.not.i = icmp eq ptr %18, null
  br i1 %.not.i, label %_ZNSt14_Function_baseD2Ev.exit, label %19

19:                                               ; preds = %17
  %20 = invoke noundef zeroext i1 %18(ptr noundef nonnull align 8 dereferenceable(32) %4, ptr noundef nonnull align 8 dereferenceable(32) %4, i32 noundef 3)
          to label %_ZNSt14_Function_baseD2Ev.exit unwind label %21

21:                                               ; preds = %19
  %22 = landingpad { ptr, i32 }
          catch ptr null
  %23 = extractvalue { ptr, i32 } %22, 0
  call void @__clang_call_terminate(ptr %23) #26
  unreachable

_ZNSt14_Function_baseD2Ev.exit:                   ; preds = %17, %19
  call void @llvm.lifetime.end.p0(i64 32, ptr nonnull %4) #25
  %24 = load i8, ptr %3, align 1, !tbaa !72, !range !79, !noundef !80
  %25 = trunc nuw i8 %24 to i1
  call void @llvm.lifetime.end.p0(i64 1, ptr nonnull %3) #25
  br label %34

26:                                               ; preds = %14
  %27 = landingpad { ptr, i32 }
          cleanup
  %28 = load ptr, ptr %15, align 8, !tbaa !78
  %.not.i5 = icmp eq ptr %28, null
  br i1 %.not.i5, label %_ZNSt14_Function_baseD2Ev.exit6, label %29

29:                                               ; preds = %26
  %30 = invoke noundef zeroext i1 %28(ptr noundef nonnull align 8 dereferenceable(32) %4, ptr noundef nonnull align 8 dereferenceable(32) %4, i32 noundef 3)
          to label %_ZNSt14_Function_baseD2Ev.exit6 unwind label %31

31:                                               ; preds = %29
  %32 = landingpad { ptr, i32 }
          catch ptr null
  %33 = extractvalue { ptr, i32 } %32, 0
  call void @__clang_call_terminate(ptr %33) #26
  unreachable

_ZNSt14_Function_baseD2Ev.exit6:                  ; preds = %26, %29
  call void @llvm.lifetime.end.p0(i64 32, ptr nonnull %4) #25
  call void @llvm.lifetime.end.p0(i64 1, ptr nonnull %3) #25
  resume { ptr, i32 } %27

34:                                               ; preds = %2, %_ZNSt14_Function_baseD2Ev.exit
  %.0 = phi i1 [ %25, %_ZNSt14_Function_baseD2Ev.exit ], [ false, %2 ]
  ret i1 %.0
}